target datalayout = "e-m:e-p270:32:32-p271:32:32-p272:64:64-i64:64-i128:128-f80:128-n8:16:32:64-S128"
target triple = "x86_64-pc-linux-gnu"

%struct.Abc_Obj_t_ = type { ptr, ptr, i32, i32, %struct.Vec_Int_t_, %struct.Vec_Int_t_, %union.anon, %union.anon.0 }
%struct.Vec_Int_t_ = type { i32, i32, ptr }
%union.anon = type { ptr }
%union.anon.0 = type { ptr }
%struct.Vec_Ptr_t_ = type { i32, i32, ptr }

; Function Attrs: inlinehint nounwind uwtable
define internal void @Vec_PtrGrow(ptr noundef %0, i32 noundef %1) #2 {
  %3 = alloca ptr, align 8
  %4 = alloca i32, align 4
  store ptr %0, ptr %3, align 8, !tbaa !26
  store i32 %1, ptr %4, align 4, !tbaa !10
  %5 = load ptr, ptr %3, align 8, !tbaa !26
  %6 = getelementptr inbounds nuw %struct.Vec_Ptr_t_, ptr %5, i32 0, i32 0
  %7 = load i32, ptr %6, align 8, !tbaa !30
  %8 = load i32, ptr %4, align 4, !tbaa !10
  %9 = icmp sge i32 %7, %8
  br i1 %9, label %10, label %11

10:                                               ; preds = %2
  br label %36

11:                                               ; preds = %2
  %12 = load ptr, ptr %3, align 8, !tbaa !26
  %13 = getelementptr inbounds nuw %struct.Vec_Ptr_t_, ptr %12, i32 0, i32 2
  %14 = load ptr, ptr %13, align 8, !tbaa !31
  %15 = icmp ne ptr %14, null
  br i1 %15, label %16, label %24

16:                                               ; preds = %11
  %17 = load ptr, ptr %3, align 8, !tbaa !26
  %18 = getelementptr inbounds nuw %struct.Vec_Ptr_t_, ptr %17, i32 0, i32 2
  %19 = load ptr, ptr %18, align 8, !tbaa !31
  %20 = load i32, ptr %4, align 4, !tbaa !10
  %21 = sext i32 %20 to i64
  %22 = mul i64 8, %21
  %23 = call ptr @realloc(ptr noundef %19, i64 noundef %22) #10
  br label %29

24:                                               ; preds = %11
  %25 = load i32, ptr %4, align 4, !tbaa !10
  %26 = sext i32 %25 to i64
  %27 = mul i64 8, %26
  %28 = call noalias ptr @malloc(i64 noundef %27) #9
  br label %29

29:                                               ; preds = %24, %16
  %30 = phi ptr [ %23, %16 ], [ %28, %24 ]
  %31 = load ptr, ptr %3, align 8, !tbaa !26
  %32 = getelementptr inbounds nuw %struct.Vec_Ptr_t_, ptr %31, i32 0, i32 2
  store ptr %30, ptr %32, align 8, !tbaa !31
  %33 = load i32, ptr %4, align 4, !tbaa !10
  %34 = load ptr, ptr %3, align 8, !tbaa !26
  %35 = getelementptr inbounds nuw %struct.Vec_Ptr_t_, ptr %34, i32 0, i32 0
  store i32 %33, ptr %35, align 8, !tbaa !30
  br label %36

36:                                               ; preds = %29, %10
  ret void
}

; Function Attrs: inlinehint nounwind uwtable
define internal void @Abc_NodesUnmark(ptr noundef %0) #2 {
  %2 = alloca ptr, align 8
  %3 = alloca ptr, align 8
  %4 = alloca i32, align 4
  store ptr %0, ptr %2, align 8, !tbaa !26
  call void @llvm.lifetime.start.p0(i64 8, ptr %3) #8
  call void @llvm.lifetime.start.p0(i64 4, ptr %4) #8
  store i32 0, ptr %4, align 4, !tbaa !10
  br label %5

5:                                                ; preds = %22, %1
  %6 = load i32, ptr %4, align 4, !tbaa !10
  %7 = load ptr, ptr %2, align 8, !tbaa !26
  %8 = call i32 @Vec_PtrSize(ptr noundef %7)
  %9 = icmp slt i32 %6, %8
  br i1 %9, label %10, label %14

10:                                               ; preds = %5
  %11 = load ptr, ptr %2, align 8, !tbaa !26
  %12 = load i32, ptr %4, align 4, !tbaa !10
  %13 = call ptr @Vec_PtrEntry(ptr noundef %11, i32 noundef %12)
  store ptr %13, ptr %3, align 8, !tbaa !8
  br label %14

14:                                               ; preds = %10, %5
  %15 = phi i1 [ false, %5 ], [ true, %10 ]
  br i1 %15, label %16, label %25

16:                                               ; preds = %14
  %17 = load ptr, ptr %3, align 8, !tbaa !8
  %18 = getelementptr inbounds nuw %struct.Abc_Obj_t_, ptr %17, i32 0, i32 3
  %19 = load i32, ptr %18, align 4
  %20 = and i32 %19, -17
  %21 = or i32 %20, 0
  store i32 %21, ptr %18, align 4
  br label %22

22:                                               ; preds = %16
  %23 = load i32, ptr %4, align 4, !tbaa !10
  %24 = add nsw i32 %23, 1
  store i32 %24, ptr %4, align 4, !tbaa !10
  br label %5, !llvm.loop !58

25:                                               ; preds = %14
  call void @llvm.lifetime.end.p0(i64 4, ptr %4) #8
  call void @llvm.lifetime.end.p0(i64 8, ptr %3) #8
  ret void
}

; Function Attrs: inlinehint nounwind uwtable
define internal void @Vec_PtrPush(ptr noundef %0, ptr noundef %1) #2 {
  %3 = alloca ptr, align 8
  %4 = alloca ptr, align 8
  store ptr %0, ptr %3, align 8, !tbaa !26
  store ptr %1, ptr %4, align 8, !tbaa !29
  %5 = load ptr, ptr %3, align 8, !tbaa !26
  %6 = getelementptr inbounds nuw %struct.Vec_Ptr_t_, ptr %5, i32 0, i32 1
  %7 = load i32, ptr %6, align 4, !tbaa !27
  %8 = load ptr, ptr %3, align 8, !tbaa !26
  %9 = getelementptr inbounds nuw %struct.Vec_Ptr_t_, ptr %8, i32 0, i32 0
  %10 = load i32, ptr %9, align 8, !tbaa !30
  %11 = icmp eq i32 %7, %10
  br i1 %11, label %12, label %26

12:                                               ; preds = %2
  %13 = load ptr, ptr %3, align 8, !tbaa !26
  %14 = getelementptr inbounds nuw %struct.Vec_Ptr_t_, ptr %13, i32 0, i32 0
  %15 = load i32, ptr %14, align 8, !tbaa !30
  %16 = icmp slt i32 %15, 16
  br i1 %16, label %17, label %19

17:                                               ; preds = %12
  %18 = load ptr, ptr %3, align 8, !tbaa !26
  call void @Vec_PtrGrow(ptr noundef %18, i32 noundef 16)
  br label %25

19:                                               ; preds = %12
  %20 = load ptr, ptr %3, align 8, !tbaa !26
  %21 = load ptr, ptr %3, align 8, !tbaa !26
  %22 = getelementptr inbounds nuw %struct.Vec_Ptr_t_, ptr %21, i32 0, i32 0
  %23 = load i32, ptr %22, align 8, !tbaa !30
  %24 = mul nsw i32 2, %23
  call void @Vec_PtrGrow(ptr noundef %20, i32 noundef %24)
  br label %25

25:                                               ; preds = %19, %17
  br label %26

26:                                               ; preds = %25, %2
  %27 = load ptr, ptr %4, align 8, !tbaa !29
  %28 = load ptr, ptr %3, align 8, !tbaa !26
  %29 = getelementptr inbounds nuw %struct.Vec_Ptr_t_, ptr %28, i32 0, i32 2
  %30 = load ptr, ptr %29, align 8, !tbaa !31
  %31 = load ptr, ptr %3, align 8, !tbaa !26
  %32 = getelementptr inbounds nuw %struct.Vec_Ptr_t_, ptr %31, i32 0, i32 1
  %33 = load i32, ptr %32, align 4, !tbaa !27
  %34 = add nsw i32 %33, 1
  store i32 %34, ptr %32, align 4, !tbaa !27
  %35 = sext i32 %33 to i64
  %36 = getelementptr inbounds ptr, ptr %30, i64 %35
  store ptr %27, ptr %36, align 8, !tbaa !29
  ret void
}

; Function Attrs: inlinehint nounwind uwtable
define internal ptr @Vec_PtrEntry(ptr noundef %0, i32 noundef %1) #2 {
  %3 = alloca ptr, align 8
  %4 = alloca i32, align 4
  store ptr %0, ptr %3, align 8, !tbaa !26
  store i32 %1, ptr %4, align 4, !tbaa !10
  %5 = load ptr, ptr %3, align 8, !tbaa !26
  %6 = getelementptr inbounds nuw %struct.Vec_Ptr_t_, ptr %5, i32 0, i32 2
  %7 = load ptr, ptr %6, align 8, !tbaa !31
  %8 = load i32, ptr %4, align 4, !tbaa !10
  %9 = sext i32 %8 to i64
  %10 = getelementptr inbounds ptr, ptr %7, i64 %9
  %11 = load ptr, ptr %10, align 8, !tbaa !29
  ret ptr %11
}

; Function Attrs: inlinehint nounwind uwtable
define internal i32 @Vec_PtrSize(ptr noundef %0) #2 {
  %2 = alloca ptr, align 8
  store ptr %0, ptr %2, align 8, !tbaa !26
  %3 = load ptr, ptr %2, align 8, !tbaa !26
  %4 = getelementptr inbounds nuw %struct.Vec_Ptr_t_, ptr %3, i32 0, i32 1
  %5 = load i32, ptr %4, align 4, !tbaa !27
  ret i32 %5
}

; Function Attrs: inlinehint nounwind uwtable
define internal void @Vec_PtrClear(ptr noundef %0) #2 {
  %2 = alloca ptr, align 8
  store ptr %0, ptr %2, align 8, !tbaa !26
  %3 = load ptr, ptr %2, align 8, !tbaa !26
  %4 = getelementptr inbounds nuw %struct.Vec_Ptr_t_, ptr %3, i32 0, i32 1
  store i32 0, ptr %4, align 4, !tbaa !27
  ret void
}

; Function Attrs: inlinehint nounwind uwtable
define internal void @Abc_NodesMark(ptr noundef %0) #2 {
  %2 = alloca ptr, align 8
  %3 = alloca ptr, align 8
  %4 = alloca i32, align 4
  store ptr %0, ptr %2, align 8, !tbaa !26
  call void @llvm.lifetime.start.p0(i64 8, ptr %3) #8
  call void @llvm.lifetime.start.p0(i64 4, ptr %4) #8
  store i32 0, ptr %4, align 4, !tbaa !10
  br label %5

5:                                                ; preds = %22, %1
  %6 = load i32, ptr %4, align 4, !tbaa !10
  %7 = load ptr, ptr %2, align 8, !tbaa !26
  %8 = call i32 @Vec_PtrSize(ptr noundef %7)
  %9 = icmp slt i32 %6, %8
  br i1 %9, label %10, label %14

10:                                               ; preds = %5
  %11 = load ptr, ptr %2, align 8, !tbaa !26
  %12 = load i32, ptr %4, align 4, !tbaa !10
  %13 = call ptr @Vec_PtrEntry(ptr noundef %11, i32 noundef %12)
  store ptr %13, ptr %3, align 8, !tbaa !8
  br label %14

14:                                               ; preds = %10, %5
  %15 = phi i1 [ false, %5 ], [ true, %10 ]
  br i1 %15, label %16, label %25

16:                                               ; preds = %14
  %17 = load ptr, ptr %3, align 8, !tbaa !8
  %18 = getelementptr inbounds nuw %struct.Abc_Obj_t_, ptr %17, i32 0, i32 3
  %19 = load i32, ptr %18, align 4
  %20 = and i32 %19, -17
  %21 = or i32 %20, 16
  store i32 %21, ptr %18, align 4
  br label %22

22:                                               ; preds = %16
  %23 = load i32, ptr %4, align 4, !tbaa !10
  %24 = add nsw i32 %23, 1
  store i32 %24, ptr %4, align 4, !tbaa !10
  br label %5, !llvm.loop !57

25:                                               ; preds = %14
  call void @llvm.lifetime.end.p0(i64 4, ptr %4) #8
  call void @llvm.lifetime.end.p0(i64 8, ptr %3) #8
  ret void
}

; Function Attrs: nounwind uwtable
define void @Abc_NodeConeCollect(ptr noundef %0, i32 noundef %1, ptr noundef %2, ptr noundef %3, i32 noundef %4) #0 {
  %6 = alloca ptr, align 8
  %7 = alloca i32, align 4
  %8 = alloca ptr, align 8
  %9 = alloca ptr, align 8
  %10 = alloca i32, align 4
  %11 = alloca ptr, align 8
  %12 = alloca i32, align 4
  store ptr %0, ptr %6, align 8, !tbaa !53
  store i32 %1, ptr %7, align 4, !tbaa !10
  store ptr %2, ptr %8, align 8, !tbaa !26
  store ptr %3, ptr %9, align 8, !tbaa !26
  store i32 %4, ptr %10, align 4, !tbaa !10
  call void @llvm.lifetime.start.p0(i64 8, ptr %11) #8
  call void @llvm.lifetime.start.p0(i64 4, ptr %12) #8
  %13 = load ptr, ptr %8, align 8, !tbaa !26
  call void @Abc_NodesMark(ptr noundef %13)
  %14 = load ptr, ptr %9, align 8, !tbaa !26
  call void @Vec_PtrClear(ptr noundef %14)
  %15 = load i32, ptr %10, align 4, !tbaa !10
  %16 = icmp ne i32 %15, 0
  br i1 %16, label %17, label %36

17:                                               ; preds = %5
  store i32 0, ptr %12, align 4, !tbaa !10
  br label %18

18:                                               ; preds = %32, %17
  %19 = load i32, ptr %12, align 4, !tbaa !10
  %20 = load ptr, ptr %8, align 8, !tbaa !26
  %21 = call i32 @Vec_PtrSize(ptr noundef %20)
  %22 = icmp slt i32 %19, %21
  br i1 %22, label %23, label %27

23:                                               ; preds = %18
  %24 = load ptr, ptr %8, align 8, !tbaa !26
  %25 = load i32, ptr %12, align 4, !tbaa !10
  %26 = call ptr @Vec_PtrEntry(ptr noundef %24, i32 noundef %25)
  store ptr %26, ptr %11, align 8, !tbaa !8
  br label %27

27:                                               ; preds = %23, %18
  %28 = phi i1 [ false, %18 ], [ true, %23 ]
  br i1 %28, label %29, label %35

29:                                               ; preds = %27
  %30 = load ptr, ptr %9, align 8, !tbaa !26
  %31 = load ptr, ptr %11, align 8, !tbaa !8
  call void @Vec_PtrPush(ptr noundef %30, ptr noundef %31)
  br label %32

32:                                               ; preds = %29
  %33 = load i32, ptr %12, align 4, !tbaa !10
  %34 = add nsw i32 %33, 1
  store i32 %34, ptr %12, align 4, !tbaa !10
  br label %18, !llvm.loop !55

35:                                               ; preds = %27
  br label %36

36:                                               ; preds = %35, %5
  store i32 0, ptr %12, align 4, !tbaa !10
  br label %37

37:                                               ; preds = %48, %36
  %38 = load i32, ptr %12, align 4, !tbaa !10
  %39 = load i32, ptr %7, align 4, !tbaa !10
  %40 = icmp slt i32 %38, %39
  br i1 %40, label %41, label %51

41:                                               ; preds = %37
  %42 = load ptr, ptr %6, align 8, !tbaa !53
  %43 = load i32, ptr %12, align 4, !tbaa !10
  %44 = sext i32 %43 to i64
  %45 = getelementptr inbounds ptr, ptr %42, i64 %44
  %46 = load ptr, ptr %45, align 8, !tbaa !8
  %47 = load ptr, ptr %9, align 8, !tbaa !26
  call void @Abc_NodeConeMarkCollect_rec(ptr noundef %46, ptr noundef %47)
  br label %48

48:                                               ; preds = %41
  %49 = load i32, ptr %12, align 4, !tbaa !10
  %50 = add nsw i32 %49, 1
  store i32 %50, ptr %12, align 4, !tbaa !10
  br label %37, !llvm.loop !56

51:                                               ; preds = %37
  %52 = load ptr, ptr %8, align 8, !tbaa !26
  call void @Abc_NodesUnmark(ptr noundef %52)
  %53 = load ptr, ptr %9, align 8, !tbaa !26
  call void @Abc_NodesUnmark(ptr noundef %53)
  call void @llvm.lifetime.end.p0(i64 4, ptr %12) #8
  call void @llvm.lifetime.end.p0(i64 8, ptr %11) #8
  ret void
}