; Function Attrs: nounwind uwtable
define void @Abc_NodeConeCollect(ptr noundef readonly captures(none) %0, i32 noundef %1, ptr noundef readonly captures(none) %2, ptr noundef %3, i32 noundef %4) local_unnamed_addr #0 {
  %6 = getelementptr i8, ptr %2, i64 4
  %.val6.i = load i32, ptr %6, align 4, !tbaa !11
  %7 = icmp sgt i32 %.val6.i, 0
  br i1 %7, label %.lr.ph.i, label %Abc_NodesMark.exit

.lr.ph.i:                                         ; preds = %5
  %8 = getelementptr i8, ptr %2, i64 8
  br label %9

9:                                                ; preds = %9, %.lr.ph.i
  %indvars.iv.i = phi i64 [ 0, %.lr.ph.i ], [ %indvars.iv.next.i, %9 ]
  %.val5.i = load ptr, ptr %8, align 8, !tbaa !14
  %10 = getelementptr inbounds nuw ptr, ptr %.val5.i, i64 %indvars.iv.i
  %11 = load ptr, ptr %10, align 8, !tbaa !15
  %12 = getelementptr inbounds nuw i8, ptr %11, i64 20
  %13 = load i32, ptr %12, align 4
  %14 = or i32 %13, 16
  store i32 %14, ptr %12, align 4
  %indvars.iv.next.i = add nuw nsw i64 %indvars.iv.i, 1
  %.val.i = load i32, ptr %6, align 4, !tbaa !11
  %15 = sext i32 %.val.i to i64
  %16 = icmp slt i64 %indvars.iv.next.i, %15
  br i1 %16, label %9, label %Abc_NodesMark.exit, !llvm.loop !52

Abc_NodesMark.exit:                               ; preds = %9, %5
  %17 = getelementptr inbounds nuw i8, ptr %3, i64 4
  store i32 0, ptr %17, align 4, !tbaa !11
  %.not = icmp eq i32 %4, 0
  br i1 %.not, label %.critedge, label %.preheader

.preheader:                                       ; preds = %Abc_NodesMark.exit
  %.val31 = load i32, ptr %6, align 4, !tbaa !11
  %18 = icmp sgt i32 %.val31, 0
  br i1 %18, label %.lr.ph, label %.critedge

.lr.ph:                                           ; preds = %.preheader
  %19 = getelementptr i8, ptr %2, i64 8
  %.phi.trans.insert.i = getelementptr inbounds nuw i8, ptr %3, i64 8
  %.pre = load i32, ptr %3, align 8, !tbaa !13
  br label %20

20:                                               ; preds = %.lr.ph, %Vec_PtrPush.exit
  %21 = phi i32 [ %.pre, %.lr.ph ], [ %46, %Vec_PtrPush.exit ]
  %22 = phi i32 [ 0, %.lr.ph ], [ %49, %Vec_PtrPush.exit ]
  %indvars.iv = phi i64 [ 0, %.lr.ph ], [ %indvars.iv.next, %Vec_PtrPush.exit ]
  %.val17 = load ptr, ptr %19, align 8, !tbaa !14
  %23 = getelementptr inbounds nuw ptr, ptr %.val17, i64 %indvars.iv
  %24 = load ptr, ptr %23, align 8, !tbaa !15
  %25 = icmp eq i32 %22, %21
  br i1 %25, label %26, label %.Vec_PtrGrow.exit11_crit_edge.i

.Vec_PtrGrow.exit11_crit_edge.i:                  ; preds = %20
  %.pre.i = load ptr, ptr %.phi.trans.insert.i, align 8, !tbaa !14
  br label %Vec_PtrPush.exit

26:                                               ; preds = %20
  %27 = icmp slt i32 %21, 16
  br i1 %27, label %28, label %35

28:                                               ; preds = %26
  %29 = load ptr, ptr %.phi.trans.insert.i, align 8, !tbaa !14
  %.not9.i.i = icmp eq ptr %29, null
  br i1 %.not9.i.i, label %32, label %30

30:                                               ; preds = %28
  %31 = tail call dereferenceable_or_null(128) ptr @realloc(ptr noundef nonnull %29, i64 noundef 128) #11
  br label %Vec_PtrGrow.exit.i

32:                                               ; preds = %28
  %33 = tail call noalias dereferenceable_or_null(128) ptr @malloc(i64 noundef 128) #12
  br label %Vec_PtrGrow.exit.i

Vec_PtrGrow.exit.i:                               ; preds = %32, %30
  %34 = phi ptr [ %31, %30 ], [ %33, %32 ]
  store ptr %34, ptr %.phi.trans.insert.i, align 8, !tbaa !14
  store i32 16, ptr %3, align 8, !tbaa !13
  br label %Vec_PtrPush.exit

35:                                               ; preds = %26
  %36 = shl nuw nsw i32 %21, 1
  %37 = load ptr, ptr %.phi.trans.insert.i, align 8, !tbaa !14
  %.not9.i10.i = icmp eq ptr %37, null
  %38 = zext nneg i32 %36 to i64
  %39 = shl nuw nsw i64 %38, 3
  br i1 %.not9.i10.i, label %42, label %40

40:                                               ; preds = %35
  %41 = tail call ptr @realloc(ptr noundef nonnull %37, i64 noundef %39) #11
  br label %44

42:                                               ; preds = %35
  %43 = tail call noalias ptr @malloc(i64 noundef %39) #12
  br label %44

44:                                               ; preds = %42, %40
  %45 = phi ptr [ %41, %40 ], [ %43, %42 ]
  store ptr %45, ptr %.phi.trans.insert.i, align 8, !tbaa !14
  store i32 %36, ptr %3, align 8, !tbaa !13
  br label %Vec_PtrPush.exit

Vec_PtrPush.exit:                                 ; preds = %.Vec_PtrGrow.exit11_crit_edge.i, %Vec_PtrGrow.exit.i, %44
  %46 = phi i32 [ %21, %.Vec_PtrGrow.exit11_crit_edge.i ], [ %36, %44 ], [ 16, %Vec_PtrGrow.exit.i ]
  %47 = phi ptr [ %.pre.i, %.Vec_PtrGrow.exit11_crit_edge.i ], [ %45, %44 ], [ %34, %Vec_PtrGrow.exit.i ]
  %48 = load i32, ptr %17, align 4, !tbaa !11
  %49 = add nsw i32 %48, 1
  store i32 %49, ptr %17, align 4, !tbaa !11
  %50 = sext i32 %48 to i64
  %51 = getelementptr inbounds ptr, ptr %47, i64 %50
  store ptr %24, ptr %51, align 8, !tbaa !15
  %indvars.iv.next = add nuw nsw i64 %indvars.iv, 1
  %.val = load i32, ptr %6, align 4, !tbaa !11
  %52 = sext i32 %.val to i64
  %53 = icmp slt i64 %indvars.iv.next, %52
  br i1 %53, label %20, label %.critedge, !llvm.loop !53

.critedge:                                        ; preds = %Vec_PtrPush.exit, %.preheader, %Abc_NodesMark.exit
  %54 = icmp sgt i32 %1, 0
  br i1 %54, label %.lr.ph34.preheader, label %._crit_edge

.lr.ph34.preheader:                               ; preds = %.critedge
  %wide.trip.count = zext nneg i32 %1 to i64
  br label %.lr.ph34

.lr.ph34:                                         ; preds = %.lr.ph34.preheader, %.lr.ph34
  %indvars.iv36 = phi i64 [ 0, %.lr.ph34.preheader ], [ %indvars.iv.next37, %.lr.ph34 ]
  %55 = getelementptr inbounds nuw ptr, ptr %0, i64 %indvars.iv36
  %56 = load ptr, ptr %55, align 8, !tbaa !54
  tail call fastcc void @Abc_NodeConeMarkCollect_rec(ptr noundef %56, ptr noundef %3)
  %indvars.iv.next37 = add nuw nsw i64 %indvars.iv36, 1
  %exitcond.not = icmp eq i64 %indvars.iv.next37, %wide.trip.count
  br i1 %exitcond.not, label %._crit_edge, label %.lr.ph34, !llvm.loop !55

._crit_edge:                                      ; preds = %.lr.ph34, %.critedge
  %.val6.i18 = load i32, ptr %6, align 4, !tbaa !11
  %57 = icmp sgt i32 %.val6.i18, 0
  br i1 %57, label %.lr.ph.i19, label %Abc_NodesUnmark.exit

.lr.ph.i19:                                       ; preds = %._crit_edge
  %58 = getelementptr i8, ptr %2, i64 8
  br label %59

59:                                               ; preds = %59, %.lr.ph.i19
  %indvars.iv.i20 = phi i64 [ 0, %.lr.ph.i19 ], [ %indvars.iv.next.i22, %59 ]
  %.val5.i21 = load ptr, ptr %58, align 8, !tbaa !14
  %60 = getelementptr inbounds nuw ptr, ptr %.val5.i21, i64 %indvars.iv.i20
  %61 = load ptr, ptr %60, align 8, !tbaa !15
  %62 = getelementptr inbounds nuw i8, ptr %61, i64 20
  %63 = load i32, ptr %62, align 4
  %64 = and i32 %63, -17
  store i32 %64, ptr %62, align 4
  %indvars.iv.next.i22 = add nuw nsw i64 %indvars.iv.i20, 1
  %.val.i23 = load i32, ptr %6, align 4, !tbaa !11
  %65 = sext i32 %.val.i23 to i64
  %66 = icmp slt i64 %indvars.iv.next.i22, %65
  br i1 %66, label %59, label %Abc_NodesUnmark.exit, !llvm.loop !56

Abc_NodesUnmark.exit:                             ; preds = %59, %._crit_edge
  %.val6.i24 = load i32, ptr %17, align 4, !tbaa !11
  %67 = icmp sgt i32 %.val6.i24, 0
  br i1 %67, label %.lr.ph.i25, label %Abc_NodesUnmark.exit30

.lr.ph.i25:                                       ; preds = %Abc_NodesUnmark.exit
  %68 = getelementptr i8, ptr %3, i64 8
  br label %69

69:                                               ; preds = %69, %.lr.ph.i25
  %indvars.iv.i26 = phi i64 [ 0, %.lr.ph.i25 ], [ %indvars.iv.next.i28, %69 ]
  %.val5.i27 = load ptr, ptr %68, align 8, !tbaa !14
  %70 = getelementptr inbounds nuw ptr, ptr %.val5.i27, i64 %indvars.iv.i26
  %71 = load ptr, ptr %70, align 8, !tbaa !15
  %72 = getelementptr inbounds nuw i8, ptr %71, i64 20
  %73 = load i32, ptr %72, align 4
  %74 = and i32 %73, -17
  store i32 %74, ptr %72, align 4
  %indvars.iv.next.i28 = add nuw nsw i64 %indvars.iv.i26, 1
  %.val.i29 = load i32, ptr %17, align 4, !tbaa !11
  %75 = sext i32 %.val.i29 to i64
  %76 = icmp slt i64 %indvars.iv.next.i28, %75
  br i1 %76, label %69, label %Abc_NodesUnmark.exit30, !llvm.loop !56

Abc_NodesUnmark.exit30:                           ; preds = %69, %Abc_NodesUnmark.exit
  ret void
}